target datalayout = "e-m:e-p270:32:32-p271:32:32-p272:64:64-i64:64-i128:128-f80:128-n8:16:32:64-S128"
target triple = "x86_64-pc-linux-gnu"

%"class.std::__cxx11::basic_string" = type { %"struct.std::__cxx11::basic_string<char>::_Alloc_hider", i64, %union.anon }
%"struct.std::__cxx11::basic_string<char>::_Alloc_hider" = type { ptr }
%union.anon = type { i64, [8 x i8] }
%class.OutputFile = type { %"class.std::__cxx11::basic_string", %"class.std::__cxx11::basic_string", i32, i32, i32, i8, %"class.std::vector", %"class.std::vector.3", %"class.std::__cxx11::basic_string", %"class.std::__cxx11::basic_string" }
%"class.std::vector" = type { %"struct.std::_Vector_base" }
%"struct.std::_Vector_base" = type { %"struct.std::_Vector_base<float, std::allocator<float>>::_Vector_impl" }
%"struct.std::_Vector_base<float, std::allocator<float>>::_Vector_impl" = type { %"struct.std::_Vector_base<float, std::allocator<float>>::_Vector_impl_data" }
%"struct.std::_Vector_base<float, std::allocator<float>>::_Vector_impl_data" = type { ptr, ptr, ptr }
%"class.std::vector.3" = type { %"struct.std::_Vector_base.4" }
%"struct.std::_Vector_base.4" = type { %"struct.std::_Vector_base<std::__cxx11::basic_string<char>, std::allocator<std::__cxx11::basic_string<char>>>::_Vector_impl" }
%"struct.std::_Vector_base<std::__cxx11::basic_string<char>, std::allocator<std::__cxx11::basic_string<char>>>::_Vector_impl" = type { %"struct.std::_Vector_base<std::__cxx11::basic_string<char>, std::allocator<std::__cxx11::basic_string<char>>>::_Vector_impl_data" }
%"struct.std::_Vector_base<std::__cxx11::basic_string<char>, std::allocator<std::__cxx11::basic_string<char>>>::_Vector_impl_data" = type { ptr, ptr, ptr }
%struct.t_enxblock = type { i32, i32, ptr, i32 }
%struct.t_enxsubblock = type { i32, i32, ptr, ptr, ptr, ptr, ptr, ptr, i32, i32, i32, i32, i32, i32 }

@.str.9 = private unnamed_addr constant [8 x i8] c"  %8.4f\00", align 1
@.str.10 = private unnamed_addr constant [5 x i8] c"  %g\00", align 1
@.str.11 = private unnamed_addr constant [2 x i8] c"\0A\00", align 1

; Function Attrs: mustprogress nounwind uwtable
define linkonce_odr noundef nonnull align 4 dereferenceable(4) ptr @_ZNKSt6vectorIfSaIfEEixEm(ptr noundef nonnull align 8 dereferenceable(24) %0, i64 noundef %1) #1 comdat align 2 {
  %3 = alloca ptr, align 8
  %4 = alloca i64, align 8
  store ptr %0, ptr %3, align 8, !tbaa !32
  store i64 %1, ptr %4, align 8, !tbaa !36
  %5 = load ptr, ptr %3, align 8
  %6 = getelementptr inbounds nuw %"struct.std::_Vector_base", ptr %5, i32 0, i32 0
  %7 = getelementptr inbounds nuw %"struct.std::_Vector_base<float, std::allocator<float>>::_Vector_impl_data", ptr %6, i32 0, i32 0
  %8 = load ptr, ptr %7, align 8, !tbaa !41
  %9 = load i64, ptr %4, align 8, !tbaa !36
  %10 = getelementptr inbounds nuw float, ptr %8, i64 %9
  ret ptr %10
}

; Function Attrs: mustprogress nounwind uwtable
define void @_ZNK10OutputFile9writeDataERK10t_enxblockiP8_IO_FILE(ptr noundef nonnull align 8 dereferenceable(192) %0, ptr noundef nonnull align 8 dereferenceable(24) %1, i32 noundef %2, ptr noundef %3) #1 align 2 {
  %5 = alloca ptr, align 8
  %6 = alloca ptr, align 8
  %7 = alloca i32, align 4
  %8 = alloca ptr, align 8
  %9 = alloca i32, align 4
  %10 = alloca i32, align 4
  %11 = alloca i32, align 4
  %12 = alloca i32, align 4
  %13 = alloca i32, align 4
  store ptr %0, ptr %5, align 8, !tbaa !4
  store ptr %1, ptr %6, align 8, !tbaa !129
  store i32 %2, ptr %7, align 4, !tbaa !11
  store ptr %3, ptr %8, align 8, !tbaa !89
  %14 = load ptr, ptr %5, align 8
  call void @llvm.lifetime.start.p0(i64 4, ptr %9) #16
  %15 = load ptr, ptr %6, align 8, !tbaa !129
  %16 = getelementptr inbounds nuw %struct.t_enxblock, ptr %15, i32 0, i32 2
  %17 = load ptr, ptr %16, align 8, !tbaa !131
  %18 = load i32, ptr %7, align 4, !tbaa !11
  %19 = add nsw i32 %18, 1
  %20 = sext i32 %19 to i64
  %21 = getelementptr inbounds %struct.t_enxsubblock, ptr %17, i64 %20
  %22 = getelementptr inbounds nuw %struct.t_enxsubblock, ptr %21, i32 0, i32 0
  %23 = load i32, ptr %22, align 8, !tbaa !134
  store i32 %23, ptr %9, align 4, !tbaa !11
  call void @llvm.lifetime.start.p0(i64 4, ptr %10) #16
  store i32 0, ptr %10, align 4, !tbaa !11
  br label %24

24:                                               ; preds = %96, %4
  %25 = load i32, ptr %10, align 4, !tbaa !11
  %26 = load i32, ptr %9, align 4, !tbaa !11
  %27 = icmp slt i32 %25, %26
  br i1 %27, label %29, label %28

28:                                               ; preds = %24
  store i32 2, ptr %11, align 4
  call void @llvm.lifetime.end.p0(i64 4, ptr %10) #16
  br label %99

29:                                               ; preds = %24
  call void @llvm.lifetime.start.p0(i64 4, ptr %12) #16
  store i32 0, ptr %12, align 4, !tbaa !11
  br label %30

30:                                               ; preds = %55, %29
  %31 = load i32, ptr %12, align 4, !tbaa !11
  %32 = getelementptr inbounds nuw %class.OutputFile, ptr %14, i32 0, i32 2
  %33 = load i32, ptr %32, align 8, !tbaa !13
  %34 = icmp slt i32 %31, %33
  br i1 %34, label %36, label %35

35:                                               ; preds = %30
  store i32 5, ptr %11, align 4
  call void @llvm.lifetime.end.p0(i64 4, ptr %12) #16
  br label %58

36:                                               ; preds = %30
  %37 = load ptr, ptr %8, align 8, !tbaa !89
  %38 = load ptr, ptr %6, align 8, !tbaa !129
  %39 = getelementptr inbounds nuw %struct.t_enxblock, ptr %38, i32 0, i32 2
  %40 = load ptr, ptr %39, align 8, !tbaa !131
  %41 = load i32, ptr %7, align 4, !tbaa !11
  %42 = add nsw i32 %41, 1
  %43 = load i32, ptr %12, align 4, !tbaa !11
  %44 = add nsw i32 %42, %43
  %45 = sext i32 %44 to i64
  %46 = getelementptr inbounds %struct.t_enxsubblock, ptr %40, i64 %45
  %47 = getelementptr inbounds nuw %struct.t_enxsubblock, ptr %46, i32 0, i32 2
  %48 = load ptr, ptr %47, align 8, !tbaa !140
  %49 = load i32, ptr %10, align 4, !tbaa !11
  %50 = sext i32 %49 to i64
  %51 = getelementptr inbounds float, ptr %48, i64 %50
  %52 = load float, ptr %51, align 4, !tbaa !141
  %53 = fpext float %52 to double
  %54 = call i32 (ptr, ptr, ...) @fprintf(ptr noundef %37, ptr noundef @.str.9, double noundef %53) #16
  br label %55

55:                                               ; preds = %36
  %56 = load i32, ptr %12, align 4, !tbaa !11
  %57 = add nsw i32 %56, 1
  store i32 %57, ptr %12, align 4, !tbaa !11
  br label %30, !llvm.loop !143

58:                                               ; preds = %35
  call void @llvm.lifetime.start.p0(i64 4, ptr %13) #16
  store i32 0, ptr %13, align 4, !tbaa !11
  br label %59

59:                                               ; preds = %90, %58
  %60 = load i32, ptr %13, align 4, !tbaa !11
  %61 = getelementptr inbounds nuw %class.OutputFile, ptr %14, i32 0, i32 4
  %62 = load i32, ptr %61, align 8, !tbaa !30
  %63 = icmp slt i32 %60, %62
  br i1 %63, label %65, label %64

64:                                               ; preds = %59
  store i32 8, ptr %11, align 4
  call void @llvm.lifetime.end.p0(i64 4, ptr %13) #16
  br label %93

65:                                               ; preds = %59
  %66 = load ptr, ptr %8, align 8, !tbaa !89
  %67 = load ptr, ptr %6, align 8, !tbaa !129
  %68 = getelementptr inbounds nuw %struct.t_enxblock, ptr %67, i32 0, i32 2
  %69 = load ptr, ptr %68, align 8, !tbaa !131
  %70 = getelementptr inbounds nuw %class.OutputFile, ptr %14, i32 0, i32 3
  %71 = load i32, ptr %70, align 4, !tbaa !29
  %72 = load i32, ptr %13, align 4, !tbaa !11
  %73 = add nsw i32 %71, %72
  %74 = sext i32 %73 to i64
  %75 = getelementptr inbounds %struct.t_enxsubblock, ptr %69, i64 %74
  %76 = getelementptr inbounds nuw %struct.t_enxsubblock, ptr %75, i32 0, i32 2
  %77 = load ptr, ptr %76, align 8, !tbaa !140
  %78 = load i32, ptr %10, align 4, !tbaa !11
  %79 = sext i32 %78 to i64
  %80 = getelementptr inbounds float, ptr %77, i64 %79
  %81 = load float, ptr %80, align 4, !tbaa !141
  %82 = getelementptr inbounds nuw %class.OutputFile, ptr %14, i32 0, i32 6
  %83 = load i32, ptr %13, align 4, !tbaa !11
  %84 = sext i32 %83 to i64
  %85 = call noundef nonnull align 4 dereferenceable(4) ptr @_ZNKSt6vectorIfSaIfEEixEm(ptr noundef nonnull align 8 dereferenceable(24) %82, i64 noundef %84) #16
  %86 = load float, ptr %85, align 4, !tbaa !141
  %87 = fmul float %81, %86
  %88 = fpext float %87 to double
  %89 = call i32 (ptr, ptr, ...) @fprintf(ptr noundef %66, ptr noundef @.str.10, double noundef %88) #16
  br label %90

90:                                               ; preds = %65
  %91 = load i32, ptr %13, align 4, !tbaa !11
  %92 = add nsw i32 %91, 1
  store i32 %92, ptr %13, align 4, !tbaa !11
  br label %59, !llvm.loop !144

93:                                               ; preds = %64
  %94 = load ptr, ptr %8, align 8, !tbaa !89
  %95 = call i32 (ptr, ptr, ...) @fprintf(ptr noundef %94, ptr noundef @.str.11) #16
  br label %96

96:                                               ; preds = %93
  %97 = load i32, ptr %10, align 4, !tbaa !11
  %98 = add nsw i32 %97, 1
  store i32 %98, ptr %10, align 4, !tbaa !11
  br label %24, !llvm.loop !145

99:                                               ; preds = %28
  call void @llvm.lifetime.end.p0(i64 4, ptr %9) #16
  ret void
}