; Function Attrs: mustprogress nofree nounwind uwtable
define void @_ZNK10OutputFile9writeDataERK10t_enxblockiP8_IO_FILE(ptr noundef nonnull readonly align 8 captures(none) dereferenceable(192) %0, ptr noundef nonnull readonly align 8 captures(none) dereferenceable(24) %1, i32 noundef %2, ptr noundef captures(none) %3) local_unnamed_addr #11 align 2 {
  %5 = getelementptr inbounds nuw i8, ptr %1, i64 8
  %6 = load ptr, ptr %5, align 8, !tbaa !37
  %7 = add nsw i32 %2, 1
  %8 = sext i32 %7 to i64
  %9 = getelementptr inbounds %struct.t_enxsubblock, ptr %6, i64 %8
  %10 = load i32, ptr %9, align 8, !tbaa !41
  %11 = icmp sgt i32 %10, 0
  br i1 %11, label %.preheader22.lr.ph, label %._crit_edge27

.preheader22.lr.ph:                               ; preds = %4
  %12 = getelementptr inbounds nuw i8, ptr %0, i64 64
  %13 = getelementptr inbounds nuw i8, ptr %0, i64 72
  %14 = getelementptr inbounds nuw i8, ptr %0, i64 68
  %15 = getelementptr inbounds nuw i8, ptr %0, i64 80
  %wide.trip.count = zext nneg i32 %10 to i64
  br label %.preheader22

.preheader22:                                     ; preds = %.preheader22.lr.ph, %._crit_edge
  %indvars.iv32 = phi i64 [ 0, %.preheader22.lr.ph ], [ %indvars.iv.next33, %._crit_edge ]
  %16 = load i32, ptr %12, align 8, !tbaa !49
  %17 = icmp sgt i32 %16, 0
  br i1 %17, label %.lr.ph, label %.preheader

._crit_edge27:                                    ; preds = %._crit_edge, %4
  ret void

.preheader:                                       ; preds = %.lr.ph, %.preheader22
  %18 = load i32, ptr %13, align 8, !tbaa !58
  %19 = icmp sgt i32 %18, 0
  br i1 %19, label %.lr.ph25, label %._crit_edge

.lr.ph:                                           ; preds = %.preheader22, %.lr.ph
  %indvars.iv = phi i64 [ %indvars.iv.next, %.lr.ph ], [ 0, %.preheader22 ]
  %20 = load ptr, ptr %5, align 8, !tbaa !37
  %21 = add nsw i64 %indvars.iv, %8
  %22 = getelementptr inbounds %struct.t_enxsubblock, ptr %20, i64 %21, i32 2
  %23 = load ptr, ptr %22, align 8, !tbaa !59
  %24 = getelementptr inbounds nuw float, ptr %23, i64 %indvars.iv32
  %25 = load float, ptr %24, align 4, !tbaa !60
  %26 = fpext float %25 to double
  %27 = tail call i32 (ptr, ptr, ...) @fprintf(ptr noundef %3, ptr noundef nonnull @.str.9, double noundef %26) #21
  %indvars.iv.next = add nuw nsw i64 %indvars.iv, 1
  %28 = load i32, ptr %12, align 8, !tbaa !49
  %29 = sext i32 %28 to i64
  %30 = icmp slt i64 %indvars.iv.next, %29
  br i1 %30, label %.lr.ph, label %.preheader, !llvm.loop !62

._crit_edge:                                      ; preds = %.lr.ph25, %.preheader
  %fputc = tail call i32 @fputc(i32 10, ptr %3)
  %indvars.iv.next33 = add nuw nsw i64 %indvars.iv32, 1
  %exitcond.not = icmp eq i64 %indvars.iv.next33, %wide.trip.count
  br i1 %exitcond.not, label %._crit_edge27, label %.preheader22, !llvm.loop !63

.lr.ph25:                                         ; preds = %.preheader, %.lr.ph25
  %indvars.iv29 = phi i64 [ %indvars.iv.next30, %.lr.ph25 ], [ 0, %.preheader ]
  %31 = load ptr, ptr %5, align 8, !tbaa !37
  %32 = load i32, ptr %14, align 4, !tbaa !64
  %33 = trunc nuw nsw i64 %indvars.iv29 to i32
  %34 = add nsw i32 %32, %33
  %35 = sext i32 %34 to i64
  %36 = getelementptr inbounds %struct.t_enxsubblock, ptr %31, i64 %35, i32 2
  %37 = load ptr, ptr %36, align 8, !tbaa !59
  %38 = getelementptr inbounds nuw float, ptr %37, i64 %indvars.iv32
  %39 = load float, ptr %38, align 4, !tbaa !60
  %40 = load ptr, ptr %15, align 8, !tbaa !20
  %41 = getelementptr inbounds nuw float, ptr %40, i64 %indvars.iv29
  %42 = load float, ptr %41, align 4, !tbaa !60
  %43 = fmul float %39, %42
  %44 = fpext float %43 to double
  %45 = tail call i32 (ptr, ptr, ...) @fprintf(ptr noundef %3, ptr noundef nonnull @.str.10, double noundef %44) #21
  %indvars.iv.next30 = add nuw nsw i64 %indvars.iv29, 1
  %46 = load i32, ptr %13, align 8, !tbaa !58
  %47 = sext i32 %46 to i64
  %48 = icmp slt i64 %indvars.iv.next30, %47
  br i1 %48, label %.lr.ph25, label %._crit_edge, !llvm.loop !65
}